; Function Attrs: nounwind uwtable
define hidden void @b2BodyMoveEventArray_Reserve(ptr noundef captures(none) %0, i32 noundef %1) local_unnamed_addr #0 {
  %3 = getelementptr inbounds nuw i8, ptr %0, i64 12
  %4 = load i32, ptr %3, align 4, !tbaa !3
  %.not = icmp sgt i32 %1, %4
  br i1 %.not, label %5, label %10

5:                                                ; preds = %2
  %6 = load ptr, ptr %0, align 8, !tbaa !10
  %7 = mul i32 %4, 40
  %8 = mul i32 %1, 40
  %9 = tail call ptr @b2GrowAlloc(ptr noundef %6, i32 noundef %7, i32 noundef %8) #22
  store ptr %9, ptr %0, align 8, !tbaa !10
  store i32 %1, ptr %3, align 4, !tbaa !3
  br label %10

10:                                               ; preds = %2, %5
  ret void
}